; Function Attrs: nounwind uwtable
define internal fastcc noundef ptr @_readNullTest() unnamed_addr #0 {
  %1 = alloca i32, align 4
  %2 = tail call noundef ptr @palloc0(i64 noundef 32) #10
  store i32 52, ptr %2, align 4
  call void @llvm.lifetime.start.p0(i64 4, ptr nonnull %1) #10
  %3 = call ptr @pg_strtok(ptr noundef nonnull %1) #10
  %4 = call ptr @nodeRead(ptr noundef null, i32 noundef 0) #10
  %5 = getelementptr inbounds nuw i8, ptr %2, i64 8
  store ptr %4, ptr %5, align 8
  %6 = call ptr @pg_strtok(ptr noundef nonnull %1) #10
  %7 = call ptr @pg_strtok(ptr noundef nonnull %1) #10
  %8 = call i64 @strtol(ptr noundef nonnull captures(none) %7, ptr noundef null, i32 noundef 10) #10
  %9 = trunc i64 %8 to i32
  %10 = getelementptr inbounds nuw i8, ptr %2, i64 16
  store i32 %9, ptr %10, align 8
  %11 = call ptr @pg_strtok(ptr noundef nonnull %1) #10
  %12 = call ptr @pg_strtok(ptr noundef nonnull %1) #10
  %13 = load i8, ptr %12, align 1
  %14 = icmp eq i8 %13, 116
  %15 = getelementptr inbounds nuw i8, ptr %2, i64 20
  %16 = zext i1 %14 to i8
  store i8 %16, ptr %15, align 4
  %17 = call ptr @pg_strtok(ptr noundef nonnull %1) #10
  %18 = call ptr @pg_strtok(ptr noundef nonnull %1) #10
  %19 = getelementptr inbounds nuw i8, ptr %2, i64 24
  store i32 -1, ptr %19, align 8
  call void @llvm.lifetime.end.p0(i64 4, ptr nonnull %1) #10
  ret ptr %2
}